target datalayout = "e-m:e-p270:32:32-p271:32:32-p272:64:64-i64:64-i128:128-f80:128-n8:16:32:64-S128"
target triple = "x86_64-pc-linux-gnu"

%struct.spgConfigOut = type { i32, i32, i32, i8, i8 }
%struct.SpGistTypeDesc = type { i32, i16, i8, i8, i8 }
%struct.SpGistCache = type { %struct.spgConfigOut, %struct.SpGistTypeDesc, %struct.SpGistTypeDesc, %struct.SpGistTypeDesc, %struct.SpGistTypeDesc, %struct.SpGistLUPCache }
%struct.SpGistLUPCache = type { [8 x %struct.SpGistLastUsedPage] }
%struct.SpGistLastUsedPage = type { i32, i32 }

; Function Attrs: nounwind uwtable
define dso_local zeroext i1 @spgcanreturn(ptr noundef %0, i32 noundef %1) #0 {
  %3 = alloca i1, align 1
  %4 = alloca ptr, align 8
  %5 = alloca i32, align 4
  %6 = alloca ptr, align 8
  %7 = alloca i32, align 4
  store ptr %0, ptr %4, align 8
  store i32 %1, ptr %5, align 4
  call void @llvm.lifetime.start.p0(i64 8, ptr %6) #9
  %8 = load i32, ptr %5, align 4
  %9 = icmp sgt i32 %8, 1
  br i1 %9, label %10, label %11

10:                                               ; preds = %2
  store i1 true, ptr %3, align 1
  store i32 1, ptr %7, align 4
  br label %19

11:                                               ; preds = %2
  %12 = load ptr, ptr %4, align 8
  %13 = call ptr @spgGetCache(ptr noundef %12)
  store ptr %13, ptr %6, align 8
  %14 = load ptr, ptr %6, align 8
  %15 = getelementptr inbounds nuw %struct.SpGistCache, ptr %14, i32 0, i32 0
  %16 = getelementptr inbounds nuw %struct.spgConfigOut, ptr %15, i32 0, i32 3
  %17 = load i8, ptr %16, align 4, !range !7, !noundef !8
  %18 = trunc i8 %17 to i1
  store i1 %18, ptr %3, align 1
  store i32 1, ptr %7, align 4
  br label %19

19:                                               ; preds = %11, %10
  call void @llvm.lifetime.end.p0(i64 8, ptr %6) #9
  %20 = load i1, ptr %3, align 1
  ret i1 %20
}