; Function Attrs: nounwind uwtable
define dso_local zeroext i1 @spgcanreturn(ptr noundef %0, i32 noundef %1) local_unnamed_addr #0 {
  %3 = icmp sgt i32 %1, 1
  br i1 %3, label %9, label %4

4:                                                ; preds = %2
  %5 = tail call ptr @spgGetCache(ptr noundef %0) #8
  %6 = getelementptr inbounds nuw i8, ptr %5, i64 12
  %7 = load i8, ptr %6, align 4, !range !9, !noundef !10
  %8 = trunc nuw i8 %7 to i1
  br label %9

9:                                                ; preds = %2, %4
  %.0 = phi i1 [ %8, %4 ], [ true, %2 ]
  ret i1 %.0
}